; Function Attrs: mustprogress uwtable
define hidden void @_ZN3p2t5Sweep23FillRightBelowEdgeEventERNS_12SweepContextEPNS_4EdgeERNS_4NodeE(ptr noundef nonnull align 8 dereferenceable(24) %0, ptr noundef nonnull align 8 dereferenceable(200) %1, ptr noundef readonly captures(none) %2, ptr noundef nonnull readonly align 8 captures(none) dereferenceable(40) %3) local_unnamed_addr #2 align 2 {
  %5 = load ptr, ptr %3, align 8
  %6 = load double, ptr %5, align 8
  %7 = load ptr, ptr %2, align 8
  %8 = load double, ptr %7, align 8
  %9 = fcmp olt double %6, %8
  br i1 %9, label %.lr.ph, label %_ZN3p2t5Sweep25FillRightConcaveEdgeEventERNS_12SweepContextEPNS_4EdgeERNS_4NodeE.exit

.lr.ph:                                           ; preds = %4
  %10 = getelementptr inbounds nuw i8, ptr %3, i64 16
  br label %11

11:                                               ; preds = %.lr.ph, %tailrecurse
  %12 = phi double [ %6, %.lr.ph ], [ %77, %tailrecurse ]
  %13 = phi ptr [ %5, %.lr.ph ], [ %76, %tailrecurse ]
  %14 = load ptr, ptr %10, align 8
  %15 = load ptr, ptr %14, align 8
  %16 = getelementptr inbounds nuw i8, ptr %14, i64 16
  %17 = load ptr, ptr %16, align 8
  %18 = load ptr, ptr %17, align 8
  %19 = load double, ptr %18, align 8
  %20 = fsub double %12, %19
  %21 = getelementptr inbounds nuw i8, ptr %15, i64 8
  %22 = load double, ptr %21, align 8
  %23 = getelementptr inbounds nuw i8, ptr %18, i64 8
  %24 = load double, ptr %23, align 8
  %25 = fsub double %22, %24
  %26 = fmul double %20, %25
  %27 = getelementptr inbounds nuw i8, ptr %13, i64 8
  %28 = load double, ptr %27, align 8
  %29 = fsub double %28, %24
  %30 = load double, ptr %15, align 8
  %31 = fsub double %30, %19
  %32 = fmul double %29, %31
  %33 = fcmp ogt double %26, %32
  br i1 %33, label %34, label %tailrecurse

34:                                               ; preds = %11
  %35 = getelementptr inbounds nuw i8, ptr %2, i64 8
  br label %tailrecurse.i

tailrecurse.i:                                    ; preds = %58, %34
  %36 = phi ptr [ %37, %58 ], [ %14, %34 ]
  tail call void @_ZN3p2t5Sweep4FillERNS_12SweepContextERNS_4NodeE(ptr noundef nonnull align 8 dereferenceable(24) %0, ptr noundef nonnull align 8 dereferenceable(200) %1, ptr noundef nonnull align 8 dereferenceable(40) %36)
  %37 = load ptr, ptr %10, align 8
  %38 = load ptr, ptr %37, align 8
  %39 = load ptr, ptr %2, align 8
  %.not.i = icmp eq ptr %38, %39
  br i1 %.not.i, label %_ZN3p2t5Sweep25FillRightConcaveEdgeEventERNS_12SweepContextEPNS_4EdgeERNS_4NodeE.exit, label %40

40:                                               ; preds = %tailrecurse.i
  %41 = load ptr, ptr %35, align 8
  %42 = load double, ptr %41, align 8
  %43 = load double, ptr %39, align 8
  %44 = fsub double %42, %43
  %45 = getelementptr inbounds nuw i8, ptr %38, i64 8
  %46 = load double, ptr %45, align 8
  %47 = getelementptr inbounds nuw i8, ptr %39, i64 8
  %48 = load double, ptr %47, align 8
  %49 = fsub double %46, %48
  %50 = fmul double %44, %49
  %51 = getelementptr inbounds nuw i8, ptr %41, i64 8
  %52 = load double, ptr %51, align 8
  %53 = fsub double %52, %48
  %54 = load double, ptr %38, align 8
  %55 = fsub double %54, %43
  %56 = fmul double %53, %55
  %57 = fcmp ogt double %50, %56
  br i1 %57, label %58, label %_ZN3p2t5Sweep25FillRightConcaveEdgeEventERNS_12SweepContextEPNS_4EdgeERNS_4NodeE.exit

58:                                               ; preds = %40
  %59 = load ptr, ptr %3, align 8
  %60 = getelementptr inbounds nuw i8, ptr %37, i64 16
  %61 = load ptr, ptr %60, align 8
  %62 = load ptr, ptr %61, align 8
  %63 = load double, ptr %59, align 8
  %64 = load double, ptr %62, align 8
  %65 = fsub double %63, %64
  %66 = getelementptr inbounds nuw i8, ptr %62, i64 8
  %67 = load double, ptr %66, align 8
  %68 = fsub double %46, %67
  %69 = fmul double %65, %68
  %70 = getelementptr inbounds nuw i8, ptr %59, i64 8
  %71 = load double, ptr %70, align 8
  %72 = fsub double %71, %67
  %73 = fsub double %54, %64
  %74 = fmul double %73, %72
  %75 = fcmp ogt double %69, %74
  br i1 %75, label %tailrecurse.i, label %_ZN3p2t5Sweep25FillRightConcaveEdgeEventERNS_12SweepContextEPNS_4EdgeERNS_4NodeE.exit

tailrecurse:                                      ; preds = %11
  tail call void @_ZN3p2t5Sweep24FillRightConvexEdgeEventERNS_12SweepContextEPNS_4EdgeERNS_4NodeE(ptr noundef nonnull align 8 dereferenceable(24) %0, ptr noundef nonnull align 8 dereferenceable(200) %1, ptr noundef nonnull %2, ptr noundef nonnull align 8 dereferenceable(40) %3)
  %76 = load ptr, ptr %3, align 8
  %77 = load double, ptr %76, align 8
  %78 = load ptr, ptr %2, align 8
  %79 = load double, ptr %78, align 8
  %80 = fcmp olt double %77, %79
  br i1 %80, label %11, label %_ZN3p2t5Sweep25FillRightConcaveEdgeEventERNS_12SweepContextEPNS_4EdgeERNS_4NodeE.exit

_ZN3p2t5Sweep25FillRightConcaveEdgeEventERNS_12SweepContextEPNS_4EdgeERNS_4NodeE.exit: ; preds = %tailrecurse, %58, %40, %tailrecurse.i, %4
  ret void
}